target datalayout = "e-m:e-p270:32:32-p271:32:32-p272:64:64-i64:64-i128:128-f80:128-n8:16:32:64-S128"
target triple = "x86_64-pc-linux-gnu"

; Function Attrs: nounwind uwtable
define internal i32 @contains_ssn(ptr noundef %0, i64 noundef %1, i32 noundef %2, i32 noundef %3) #0 {
  %5 = alloca i32, align 4
  %6 = alloca ptr, align 8
  %7 = alloca i64, align 8
  %8 = alloca i32, align 4
  %9 = alloca i32, align 4
  %10 = alloca ptr, align 8
  %11 = alloca ptr, align 8
  %12 = alloca i32, align 4
  store ptr %0, ptr %6, align 8
  store i64 %1, ptr %7, align 8
  store i32 %2, ptr %8, align 4
  store i32 %3, ptr %9, align 4
  store i32 0, ptr %12, align 4
  %13 = load ptr, ptr %6, align 8
  %14 = icmp eq ptr %13, null
  br i1 %14, label %18, label %15

15:                                               ; preds = %4
  %16 = load i64, ptr %7, align 8
  %17 = icmp ult i64 %16, 9
  br i1 %17, label %18, label %19

18:                                               ; preds = %15, %4
  store i32 0, ptr %5, align 4
  br label %89

19:                                               ; preds = %15
  %20 = load ptr, ptr %6, align 8
  %21 = load i64, ptr %7, align 8
  %22 = getelementptr inbounds i8, ptr %20, i64 %21
  store ptr %22, ptr %11, align 8
  %23 = load ptr, ptr %6, align 8
  store ptr %23, ptr %10, align 8
  br label %24

24:                                               ; preds = %84, %19
  %25 = load ptr, ptr %10, align 8
  %26 = load ptr, ptr %11, align 8
  %27 = icmp ult ptr %25, %26
  br i1 %27, label %28, label %87

28:                                               ; preds = %24
  %29 = call ptr @__ctype_b_loc() #5
  %30 = load ptr, ptr %29, align 8
  %31 = load ptr, ptr %10, align 8
  %32 = load i8, ptr %31, align 1
  %33 = zext i8 %32 to i32
  %34 = sext i32 %33 to i64
  %35 = getelementptr inbounds i16, ptr %30, i64 %34
  %36 = load i16, ptr %35, align 2
  %37 = zext i16 %36 to i32
  %38 = and i32 %37, 2048
  %39 = icmp ne i32 %38, 0
  br i1 %39, label %40, label %84

40:                                               ; preds = %28
  %41 = load ptr, ptr %10, align 8
  %42 = load ptr, ptr %6, align 8
  %43 = icmp eq ptr %41, %42
  br i1 %43, label %57, label %44

44:                                               ; preds = %40
  %45 = call ptr @__ctype_b_loc() #5
  %46 = load ptr, ptr %45, align 8
  %47 = load ptr, ptr %10, align 8
  %48 = getelementptr inbounds i8, ptr %47, i64 -1
  %49 = load i8, ptr %48, align 1
  %50 = zext i8 %49 to i32
  %51 = sext i32 %50 to i64
  %52 = getelementptr inbounds i16, ptr %46, i64 %51
  %53 = load i16, ptr %52, align 2
  %54 = zext i16 %53 to i32
  %55 = and i32 %54, 2048
  %56 = icmp ne i32 %55, 0
  br i1 %56, label %83, label %57

57:                                               ; preds = %44, %40
  %58 = load ptr, ptr %10, align 8
  %59 = load i64, ptr %7, align 8
  %60 = load ptr, ptr %10, align 8
  %61 = load ptr, ptr %6, align 8
  %62 = ptrtoint ptr %60 to i64
  %63 = ptrtoint ptr %61 to i64
  %64 = sub i64 %62, %63
  %65 = sub i64 %59, %64
  %66 = load i32, ptr %8, align 4
  %67 = call i32 @dlp_is_valid_ssn(ptr noundef %58, i64 noundef %65, i32 noundef %66)
  %68 = icmp eq i32 %67, 1
  br i1 %68, label %69, label %83

69:                                               ; preds = %57
  %70 = load i32, ptr %9, align 4
  %71 = icmp eq i32 %70, 1
  br i1 %71, label %72, label %81

72:                                               ; preds = %69
  %73 = load i32, ptr %12, align 4
  %74 = add nsw i32 %73, 1
  store i32 %74, ptr %12, align 4
  %75 = load i32, ptr %8, align 4
  %76 = icmp eq i32 %75, 0
  %77 = select i1 %76, i32 11, i32 9
  %78 = load ptr, ptr %10, align 8
  %79 = sext i32 %77 to i64
  %80 = getelementptr inbounds i8, ptr %78, i64 %79
  store ptr %80, ptr %10, align 8
  br label %82

81:                                               ; preds = %69
  store i32 1, ptr %5, align 4
  br label %89

82:                                               ; preds = %72
  br label %83

83:                                               ; preds = %82, %57, %44
  br label %84

84:                                               ; preds = %83, %28
  %85 = load ptr, ptr %10, align 8
  %86 = getelementptr inbounds i8, ptr %85, i32 1
  store ptr %86, ptr %10, align 8
  br label %24

87:                                               ; preds = %24
  %88 = load i32, ptr %12, align 4
  store i32 %88, ptr %5, align 4
  br label %89

89:                                               ; preds = %87, %81, %18
  %90 = load i32, ptr %5, align 4
  ret i32 %90
}

; Function Attrs: nounwind uwtable
define i32 @dlp_has_normal_ssn(ptr noundef %0, i64 noundef %1) #0 {
  %3 = alloca ptr, align 8
  %4 = alloca i64, align 8
  store ptr %0, ptr %3, align 8
  store i64 %1, ptr %4, align 8
  %5 = load ptr, ptr %3, align 8
  %6 = load i64, ptr %4, align 8
  %7 = call i32 @contains_ssn(ptr noundef %5, i64 noundef %6, i32 noundef 0, i32 noundef 0)
  ret i32 %7
}